target datalayout = "e-m:e-p270:32:32-p271:32:32-p272:64:64-i64:64-i128:128-f80:128-n8:16:32:64-S128"
target triple = "x86_64-unknown-linux-gnu"

%"class.std::__cxx11::basic_string" = type { %"struct.std::__cxx11::basic_string<char>::_Alloc_hider", i64, %union.anon }
%"struct.std::__cxx11::basic_string<char>::_Alloc_hider" = type { ptr }
%union.anon = type { i64, [8 x i8] }

@__dso_handle = external hidden global i8
@_ZZN8facebook5velox6memory12_GLOBAL__N_119cacheFailureMessageB5cxx11EvE7messageB5cxx11 = internal thread_local global %"class.std::__cxx11::basic_string" zeroinitializer, align 8
@_ZGVZN8facebook5velox6memory12_GLOBAL__N_119cacheFailureMessageB5cxx11EvE7messageB5cxx11 = internal thread_local global i8 0, align 1

; Function Attrs: mustprogress nounwind uwtable
define internal noundef nonnull align 8 dereferenceable(32) ptr @_ZN8facebook5velox6memory12_GLOBAL__N_119cacheFailureMessageB5cxx11Ev() #5 {
entry:
  %0 = load i8, ptr @_ZGVZN8facebook5velox6memory12_GLOBAL__N_119cacheFailureMessageB5cxx11EvE7messageB5cxx11, align 1
  %guard.uninitialized = icmp eq i8 %0, 0
  br i1 %guard.uninitialized, label %init.check, label %init.end, !prof !4

init.check:                                       ; preds = %entry
  call void @_ZNSt7__cxx1112basic_stringIcSt11char_traitsIcESaIcEEC1Ev(ptr noundef nonnull align 8 dereferenceable(32) @_ZZN8facebook5velox6memory12_GLOBAL__N_119cacheFailureMessageB5cxx11EvE7messageB5cxx11) #3
  %1 = call i32 @__cxa_thread_atexit(ptr @_ZNSt7__cxx1112basic_stringIcSt11char_traitsIcESaIcEED1Ev, ptr @_ZZN8facebook5velox6memory12_GLOBAL__N_119cacheFailureMessageB5cxx11EvE7messageB5cxx11, ptr @__dso_handle) #3
  store i8 1, ptr @_ZGVZN8facebook5velox6memory12_GLOBAL__N_119cacheFailureMessageB5cxx11EvE7messageB5cxx11, align 1
  br label %init.end

init.end:                                         ; preds = %init.check, %entry
  %2 = call align 8 ptr @llvm.threadlocal.address.p0(ptr align 8 @_ZZN8facebook5velox6memory12_GLOBAL__N_119cacheFailureMessageB5cxx11EvE7messageB5cxx11)
  ret ptr %2
}

; Function Attrs: mustprogress uwtable
define void @_ZN8facebook5velox6memory22setCacheFailureMessageENSt7__cxx1112basic_stringIcSt11char_traitsIcESaIcEEE(ptr noundef %message) #4 {
entry:
  %message.indirect_addr = alloca ptr, align 8
  store ptr %message, ptr %message.indirect_addr, align 8
  %call = call noundef nonnull align 8 dereferenceable(32) ptr @_ZN8facebook5velox6memory12_GLOBAL__N_119cacheFailureMessageB5cxx11Ev()
  %call1 = call noundef nonnull align 8 dereferenceable(32) ptr @_ZNSt7__cxx1112basic_stringIcSt11char_traitsIcESaIcEEaSEOS4_(ptr noundef nonnull align 8 dereferenceable(32) %call, ptr noundef nonnull align 8 dereferenceable(32) %message) #3
  ret void
}